; Function Attrs: mustprogress nounwind uwtable
define hidden void @_ZN22SystemProcessInterfaceD2Ev(ptr nocapture noundef nonnull readonly align 8 dereferenceable(8) %0) unnamed_addr #0 align 2 {
  %2 = load ptr, ptr %0, align 8
  %.not = icmp eq ptr %2, null
  br i1 %.not, label %9, label %3

3:                                                ; preds = %1
  %4 = load ptr, ptr %2, align 8
  %.not.i = icmp eq ptr %4, null
  br i1 %.not.i, label %_ZN22SystemProcessInterface15SystemProcessesD2Ev.exit, label %5

5:                                                ; preds = %3
  %6 = load ptr, ptr %4, align 8
  %.not.i.i = icmp eq ptr %6, null
  br i1 %.not.i.i, label %_ZN22SystemProcessInterface15SystemProcesses15ProcessIteratorD2Ev.exit.i, label %7

7:                                                ; preds = %5
  %8 = tail call noundef i32 @_ZN2os8closedirEP11__dirstream(ptr noundef nonnull %6) #18
  br label %_ZN22SystemProcessInterface15SystemProcesses15ProcessIteratorD2Ev.exit.i

_ZN22SystemProcessInterface15SystemProcesses15ProcessIteratorD2Ev.exit.i: ; preds = %7, %5
  tail call void @_Z8FreeHeapPv(ptr noundef nonnull %4) #18
  br label %_ZN22SystemProcessInterface15SystemProcessesD2Ev.exit

_ZN22SystemProcessInterface15SystemProcessesD2Ev.exit: ; preds = %3, %_ZN22SystemProcessInterface15SystemProcesses15ProcessIteratorD2Ev.exit.i
  tail call void @_Z8FreeHeapPv(ptr noundef nonnull %2) #18
  br label %9

9:                                                ; preds = %_ZN22SystemProcessInterface15SystemProcessesD2Ev.exit, %1
  ret void
}